Certificate:
    Data:
        Version: 3 (0x2)
        Serial Number: 2 (0x2)
        Signature Algorithm: sha1WithRSAEncryption
        Issuer: DC=org, DC=simple, O=Simple Inc, OU=Simple Signing CA, CN=Simple Signing CA
        Validity
            Not Before: May 17 02:21:10 2021 GMT
            Not After : May 17 02:21:10 2023 GMT
        Subject: DC=org, DC=simple, O=Simple Inc, CN=www.simple.org
        Subject Public Key Info:
            Public Key Algorithm: rsaEncryption
                RSA Public-Key: (2048 bit)
                Modulus:
                    00:b5:30:f9:72:f6:01:96:25:00:33:d6:3c:d4:c6:
                    13:e5:05:33:1f:cd:6b:e8:eb:29:fc:38:e0:23:8d:
                    38:ae:ac:1b:54:54:a5:cd:b2:4e:93:b8:b8:13:c8:
                    42:0a:b7:15:bf:bc:ea:80:cb:38:24:7c:f6:2e:91:
                    de:91:db:2b:d6:cc:0f:dc:64:9a:30:f1:52:4a:a9:
                    32:b2:b3:ea:ba:16:3f:32:04:bf:ca:fe:bb:22:82:
                    47:c9:ba:e7:c5:f9:6d:0d:6d:19:1a:2e:d5:80:45:
                    4b:af:6c:07:70:c4:9f:07:5e:4d:6d:85:0b:2f:26:
                    38:12:ca:bd:ec:0d:f8:c0:03:70:4e:d8:ab:3d:82:
                    a3:67:e7:cc:70:00:77:ff:71:d2:f4:e6:eb:1e:79:
                    f1:af:24:75:13:a1:3f:72:93:c6:3f:1d:79:17:9c:
                    09:00:6f:51:8f:4b:bb:97:3b:ba:5c:2a:e2:d5:36:
                    43:f9:0f:0f:b4:89:54:ef:99:fd:32:cf:56:11:e3:
                    55:08:f9:61:83:0b:f7:ff:7f:31:90:82:bc:a1:6f:
                    05:0f:d5:b2:bc:25:71:ba:8f:e5:6d:97:bc:27:23:
                    09:8a:76:ef:44:e4:00:ca:d5:0f:9e:d6:3b:7c:b9:
                    2a:cc:d6:f6:5f:ac:2a:bd:2a:91:f5:6c:51:d3:1d:
                    23:7b
                Exponent: 65537 (0x10001)
        X509v3 extensions:
            X509v3 Key Usage: critical
                Digital Signature, Key Encipherment
            X509v3 Basic Constraints: 
                CA:FALSE
            X509v3 Extended Key Usage: 
                TLS Web Server Authentication, TLS Web Client Authentication
            X509v3 Subject Key Identifier: 
                C3:0A:40:A8:0B:E6:B7:00:B2:0E:C1:AA:48:B6:04:F8:1B:5C:00:F3
            X509v3 Authority Key Identifier: 
                keyid:BD:FA:C2:95:9D:79:91:90:A9:FC:1C:ED:92:2A:C9:65:CE:78:7F:A9

            X509v3 Subject Alternative Name: 
                DNS:www.simple.org
    Signature Algorithm: sha1WithRSAEncryption
         89:d2:29:cf:db:55:6b:0a:f3:d3:09:7e:39:79:e9:da:05:db:
         cb:fd:43:82:3e:e1:dc:fa:0b:8c:ec:9d:36:4f:92:b8:a7:4f:
         42:e1:d5:64:20:72:6a:fc:5b:96:1f:ad:d1:89:4d:3a:6c:0a:
         bd:df:da:35:dc:80:10:72:ec:2f:cd:44:4b:6b:de:5f:d9:72:
         3f:4b:0d:5c:46:a4:fd:3a:47:1e:9e:7a:90:85:8d:4a:ac:93:
         7a:c9:6e:bd:88:bd:cc:21:1e:55:15:96:e5:ba:a2:a9:18:02:
         e6:d1:fb:d9:bb:8a:ce:e4:82:b2:dd:dd:16:fd:9b:7d:73:32:
         f8:c8:e7:a4:04:7d:66:a6:54:bf:a0:8f:e7:b8:13:be:53:dc:
         e1:56:4c:d7:6a:de:31:d1:4a:72:9b:aa:00:a9:52:84:52:2d:
         3d:0e:ba:f0:e8:ff:5b:36:ff:6f:b3:e7:37:41:45:9e:f2:20:
         98:50:98:c5:dc:c9:6f:7c:bb:2c:20:f3:41:75:20:ee:d0:51:
         6d:93:22:c7:36:ad:41:17:5b:da:61:09:82:5f:cf:83:81:26:
         cb:af:9d:e3:e1:05:fd:c9:9e:54:82:31:4b:33:a0:7f:5c:7b:
         fb:72:81:4a:69:d7:8d:ce:ca:a2:44:ac:7e:e9:5d:b0:27:9b:
         a2:d9:e7:ef
-----BEGIN CERTIFICATE-----
MIID6TCCAtGgAwIBAgIBAjANBgkqhkiG9w0BAQUFADB6MRMwEQYKCZImiZPyLGQB
GRYDb3JnMRYwFAYKCZImiZPyLGQBGRYGc2ltcGxlMRMwEQYDVQQKDApTaW1wbGUg
SW5jMRowGAYDVQQLDBFTaW1wbGUgU2lnbmluZyBDQTEaMBgGA1UEAwwRU2ltcGxl
IFNpZ25pbmcgQ0EwHhcNMjEwNTE3MDIyMTEwWhcNMjMwNTE3MDIyMTEwWjBbMRMw
EQYKCZImiZPyLGQBGRYDb3JnMRYwFAYKCZImiZPyLGQBGRYGc2ltcGxlMRMwEQYD
VQQKDApTaW1wbGUgSW5jMRcwFQYDVQQDDA53d3cuc2ltcGxlLm9yZzCCASIwDQYJ
KoZIhvcNAQEBBQADggEPADCCAQoCggEBALUw+XL2AZYlADPWPNTGE+UFMx/Na+jr
Kfw44CONOK6sG1RUpc2yTpO4uBPIQgq3Fb+86oDLOCR89i6R3pHbK9bMD9xkmjDx
UkqpMrKz6roWPzIEv8r+uyKCR8m658X5bQ1tGRou1YBFS69sB3DEnwdeTW2FCy8m
OBLKvewN+MADcE7Yqz2Co2fnzHAAd/9x0vTm6x558a8kdROhP3KTxj8deRecCQBv
UY9Lu5c7ulwq4tU2Q/kPD7SJVO+Z/TLPVhHjVQj5YYML9/9/MZCCvKFvBQ/Vsrwl
cbqP5W2XvCcjCYp270TkAMrVD57WO3y5KszW9l+sKr0qkfVsUdMdI3sCAwEAAaOB
mDCBlTAOBgNVHQ8BAf8EBAMCBaAwCQYDVR0TBAIwADAdBgNVHSUEFjAUBggrBgEF
BQcDAQYIKwYBBQUHAwIwHQYDVR0OBBYEFMMKQKgL5rcAsg7Bqki2BPgbXADzMB8G
A1UdIwQYMBaAFL36wpWdeZGQqfwc7ZIqyWXOeH+pMBkGA1UdEQQSMBCCDnd3dy5z
aW1wbGUub3JnMA0GCSqGSIb3DQEBBQUAA4IBAQCJ0inP21VrCvPTCX45eenaBdvL
/UOCPuHc+guM7J02T5K4p09C4dVkIHJq/FuWH63RiU06bAq939o13IAQcuwvzURL
a95f2XI/Sw1cRqT9OkcennqQhY1KrJN6yW69iL3MIR5VFZbluqKpGALm0fvZu4rO
5IKy3d0W/Zt9czL4yOekBH1mplS/oI/nuBO+U9zhVkzXat4x0Upym6oAqVKEUi09
Drrw6P9bNv9vs+c3QUWe8iCYUJjF3MlvfLssIPNBdSDu0FFtkyLHNq1BF1vaYQmC
X8+DgSbLr53j4QX9yZ5UgjFLM6B/XHv7coFKadeNzsqiRKx+6V2wJ5ui2efv
-----END CERTIFICATE-----
