-----BEGIN ENCRYPTED PRIVATE KEY-----
MIIFHDBOBgkqhkiG9w0BBQ0wQTApBgkqhkiG9w0BBQwwHAQIpOmItwFXKOYCAggA
MAwGCCqGSIb3DQIJBQAwFAYIKoZIhvcNAwcECHP1zgDhuXOjBIIEyEWXGj2OzsnT
dESeqUXXPsyfCuXLZFuBcwhMpBXPVlPAnG1sAY6R3kdWawVAvNXzhw3N2+YWvZUY
G/D0eJyNAFlw+FimG8aL11oMJxQ0qpNH3UkAHNFQ8TgZ7efZgRNry6zpuAIaxYzM
L/MpaVpuKgzpyAldZ1Ix68OlZ6yoQsP8n/Nbud/pgK8efiP6VyzCieAhqjpNF2sc
Zp6bxSofIapYk+pbLEK8Dr7vJcy4q8XODSwelDQuYczB0HGH8p6Rs4POWEasnyIy
PBog4JzMS0Bv4vPcFz24mQvd05XhUCi0sJBCfqa3JJrvcX1Zf2KK/a7IVQqkR8b1
vKnmDVcvoqM31rdbYJWaSuQtesukh/pZFRLfORc4gE7aNAFKDFMBLdmrJzx9PV7R
IBeg4E6b62Pql9RJ1OZbQVAmhl0teOYUpvoDg2GYOVyD1EO1GncSeB5S+Z6q5jeD
fLGVJgHlQDY9KtAnGwc4Xu4j5sI/sL7NbByf8TYCBwA36/JDYzmiZyKejxhE+omD
qlPsRQKALez4otAtn4lLR30pbFNaoMtdVHTPfAMFL7ECDrzr02QAeAPOfDxGhEZc
NJdjz6Ai0w0PIcN/ZuW5qf2JASizkGDBdNj8f/znewbCJ3PELygp7COOolEmsZuf
9GduetOJ+npphPCZ8nUQj33aTrEcEJx0IrCiEiKXkaJG4EcJNRjXMuNs8Kbqaqah
ZCz8CVcgN6yD1UrNBtSaeoEsoKsntjnUdG6OhrFoxc9840mzDkhqu1zDPwU6Pqck
AsJugI984sg47MPuW0mkLvLJE3wWPlsfLn09Ps4uKcJ7O4B6/VaSDt7EfZF6XTQN
SS5HPY5SV3f/l8uXbN7LUsvi1yUBsze6QeiqB2TOShsN9LvKL5/JnzY6DmM0koyh
ub6KMYXjkmJAtGHoJF+fRgZNJdD2wBd+JKOM/uWoLjWJF6DfFNi6aHBCrCaTzV/a
HPJ1hRkq/fLKPWj6ro4KgZr45niqc8WXP4NSA9NKly+0ZrEDqCD66FoeT+zvunV4
BuFTVNK+9uEHjuTdsEN7NBuSGvJ/VRPQDcryDGUqazI+zY1js1fXQ1/Yz7lpnWTA
ihrL/O6VVpRBwU1ddsgBjuZhRmaFuEPH2IzjDWV3lLr/xfd742isH5tgLXSo1GVl
iBmn6VqA/80+MN2BPWmTI2KVBQOqR5m/hpAOropU2outGFU8VMoNOEARqlZYIFCP
BUdCIqyKSXm3DoOUMD7S4baRWTSfQ+It4Hb+Qq6bKcbC6RSASLJ+2V9es0wY0omq
d80odhViltQdKhpLq2ecZwd59SJU5kvuHwi+4KAevmKIv5VLYU/Mj2HAl3dS9ccx
se1xb/kBvqg4UEzPR4JE8+JBomehqiP/g+klKmkvDS3WLjQWr4gsJ34jC+YV4fY2
E/wJHFcq59gbMxziWp6crUPdSgHRp8YdTRjFm2doVsi9jy0nrzcH8qQqy546FAz7
NkGg42GVx5ulZDMBVgpvx2RtwkClaktRP6bui0rJrmwyUojJ8xNQzViyFKFmLAnv
++Uvh+wujEAPLS1OhDzqSLeN3fOhwY47CD3rSTStv6tXEB9kbiK22w/gaWEpvIeV
p4j6TSNWVJibz6VZliJRpg==
-----END ENCRYPTED PRIVATE KEY-----
Certificate:
    Data:
        Version: 3 (0x2)
        Serial Number: 1 (0x1)
        Signature Algorithm: sha1WithRSAEncryption
        Issuer: DC=org, DC=simple, O=Simple Inc, OU=Simple Signing CA, CN=Simple Signing CA
        Validity
            Not Before: May 17 02:14:09 2021 GMT
            Not After : May 17 02:14:09 2023 GMT
        Subject: DC=org, DC=simple, O=Simple Inc, CN=Fred Flintstone
        Subject Public Key Info:
            Public Key Algorithm: rsaEncryption
                RSA Public-Key: (2048 bit)
                Modulus:
                    00:c2:6c:2f:08:31:08:4c:03:c9:4b:be:a5:b8:bf:
                    22:a6:c0:00:a7:b0:6e:fb:ca:c2:41:82:e6:a1:ae:
                    4e:5b:36:6a:db:8f:da:cd:2f:17:ab:b0:74:39:72:
                    f7:65:46:cd:5d:33:23:8c:ad:d3:79:07:25:2c:a4:
                    e6:b3:7c:0e:18:7a:b0:54:ce:af:04:ff:ff:6a:51:
                    00:2e:13:28:e0:3c:51:fb:85:31:49:24:98:1a:15:
                    6e:2a:40:07:c2:28:3e:07:1b:1b:28:e5:49:a7:d0:
                    bb:80:c7:20:88:8f:13:e5:47:06:a3:92:ed:7f:36:
                    d0:c3:fc:75:36:3b:6e:82:ee:86:0c:26:66:b4:d6:
                    bd:00:48:f0:63:ee:33:21:8f:3a:44:ee:4e:d3:59:
                    1f:6a:d0:0c:b9:70:d6:dd:4b:48:60:dc:cb:ea:5d:
                    0e:df:d6:60:ed:3b:70:0d:3f:73:30:89:cf:31:08:
                    20:99:76:4f:a3:87:c5:39:b9:f4:1c:1a:a4:12:fa:
                    33:42:41:75:76:3c:fc:ac:4a:69:d0:a9:b6:05:1c:
                    93:7c:5a:52:b2:5f:f4:22:60:63:fa:31:dc:58:2f:
                    b6:71:c8:00:25:60:91:f6:11:f4:e5:0b:d8:18:46:
                    3e:ec:98:21:b5:b8:e3:5a:d9:f8:81:ff:7d:c4:25:
                    64:35
                Exponent: 65537 (0x10001)
        X509v3 extensions:
            X509v3 Key Usage: critical
                Digital Signature, Key Encipherment
            X509v3 Basic Constraints: 
                CA:FALSE
            X509v3 Extended Key Usage: 
                E-mail Protection, TLS Web Client Authentication
            X509v3 Subject Key Identifier: 
                B8:F6:AD:7C:80:5F:1B:89:37:B8:7E:B5:34:0E:1C:1F:81:77:B3:78
            X509v3 Authority Key Identifier: 
                keyid:BD:FA:C2:95:9D:79:91:90:A9:FC:1C:ED:92:2A:C9:65:CE:78:7F:A9

            X509v3 Subject Alternative Name: 
                email:fred@simple.org
    Signature Algorithm: sha1WithRSAEncryption
         63:3d:91:5c:6e:10:9a:df:b6:a2:2b:95:75:cc:83:09:4e:58:
         00:3d:93:79:85:7e:ec:e7:cf:50:18:56:98:5e:b1:49:96:eb:
         fc:1a:c6:be:05:9b:55:54:19:8d:6b:fb:a7:46:46:22:f0:c3:
         80:b7:26:46:76:cc:1b:20:5d:1e:02:d6:ba:cf:a0:c1:be:59:
         22:e1:de:34:9c:d2:19:ab:63:bf:90:1e:2d:29:ca:5c:4e:83:
         4c:5f:46:82:0d:97:78:da:75:99:15:94:5f:9d:f2:fc:01:a2:
         af:58:fe:8b:58:db:4b:3e:aa:3d:62:d5:d2:68:8d:82:04:f4:
         0f:67:ca:dc:d4:c2:8a:57:f5:65:27:4a:b6:53:15:02:ff:12:
         39:e1:c5:c7:6b:49:0f:76:f2:f7:ca:5d:6a:68:00:df:e0:8c:
         46:a2:73:c1:39:1c:f3:5c:92:84:73:15:75:f4:7b:87:52:fb:
         d5:d9:32:c1:fd:0d:cb:76:8a:40:da:90:29:cd:a3:12:96:42:
         80:7b:a0:3d:e9:26:72:24:9a:a9:a0:f2:02:58:c4:18:a1:b5:
         0a:65:a8:f5:a7:85:5f:a3:df:27:1f:47:c0:14:cc:79:54:fe:
         4c:6b:f6:10:5e:03:28:c3:69:82:73:48:2a:22:98:9f:34:23:
         0f:c2:ab:ca
-----BEGIN CERTIFICATE-----
MIID6zCCAtOgAwIBAgIBATANBgkqhkiG9w0BAQUFADB6MRMwEQYKCZImiZPyLGQB
GRYDb3JnMRYwFAYKCZImiZPyLGQBGRYGc2ltcGxlMRMwEQYDVQQKDApTaW1wbGUg
SW5jMRowGAYDVQQLDBFTaW1wbGUgU2lnbmluZyBDQTEaMBgGA1UEAwwRU2ltcGxl
IFNpZ25pbmcgQ0EwHhcNMjEwNTE3MDIxNDA5WhcNMjMwNTE3MDIxNDA5WjBcMRMw
EQYKCZImiZPyLGQBGRYDb3JnMRYwFAYKCZImiZPyLGQBGRYGc2ltcGxlMRMwEQYD
VQQKDApTaW1wbGUgSW5jMRgwFgYDVQQDDA9GcmVkIEZsaW50c3RvbmUwggEiMA0G
CSqGSIb3DQEBAQUAA4IBDwAwggEKAoIBAQDCbC8IMQhMA8lLvqW4vyKmwACnsG77
ysJBguahrk5bNmrbj9rNLxersHQ5cvdlRs1dMyOMrdN5ByUspOazfA4YerBUzq8E
//9qUQAuEyjgPFH7hTFJJJgaFW4qQAfCKD4HGxso5Umn0LuAxyCIjxPlRwajku1/
NtDD/HU2O26C7oYMJma01r0ASPBj7jMhjzpE7k7TWR9q0Ay5cNbdS0hg3MvqXQ7f
1mDtO3ANP3Mwic8xCCCZdk+jh8U5ufQcGqQS+jNCQXV2PPysSmnQqbYFHJN8WlKy
X/QiYGP6MdxYL7ZxyAAlYJH2EfTlC9gYRj7smCG1uONa2fiB/33EJWQ1AgMBAAGj
gZkwgZYwDgYDVR0PAQH/BAQDAgWgMAkGA1UdEwQCMAAwHQYDVR0lBBYwFAYIKwYB
BQUHAwQGCCsGAQUFBwMCMB0GA1UdDgQWBBS49q18gF8biTe4frU0DhwfgXezeDAf
BgNVHSMEGDAWgBS9+sKVnXmRkKn8HO2SKsllznh/qTAaBgNVHREEEzARgQ9mcmVk
QHNpbXBsZS5vcmcwDQYJKoZIhvcNAQEFBQADggEBAGM9kVxuEJrftqIrlXXMgwlO
WAA9k3mFfuznz1AYVphesUmW6/waxr4Fm1VUGY1r+6dGRiLww4C3JkZ2zBsgXR4C
1rrPoMG+WSLh3jSc0hmrY7+QHi0pylxOg0xfRoINl3jadZkVlF+d8vwBoq9Y/otY
20s+qj1i1dJojYIE9A9nytzUwopX9WUnSrZTFQL/EjnhxcdrSQ928vfKXWpoAN/g
jEaic8E5HPNckoRzFXX0e4dS+9XZMsH9Dct2ikDakCnNoxKWQoB7oD3pJnIkmqmg
8gJYxBihtQplqPWnhV+j3ycfR8AUzHlU/kxr9hBeAyjDaYJzSCoimJ80Iw/Cq8o=
-----END CERTIFICATE-----
