Certificate:
    Data:
        Version: 3 (0x2)
        Serial Number: 1 (0x1)
        Signature Algorithm: sha1WithRSAEncryption
        Issuer: DC=org, DC=simple, O=Simple Inc, OU=Simple Root CA, CN=Simple Root CA
        Validity
            Not Before: May 17 01:57:53 2021 GMT
            Not After : May 17 01:57:53 2031 GMT
        Subject: DC=org, DC=simple, O=Simple Inc, OU=Simple Root CA, CN=Simple Root CA
        Subject Public Key Info:
            Public Key Algorithm: rsaEncryption
                RSA Public-Key: (2048 bit)
                Modulus:
                    00:b4:e6:b8:ec:a8:51:f0:68:a5:fe:5a:41:cf:af:
                    6a:2f:38:56:9a:a7:7c:76:86:54:72:58:ec:d4:78:
                    e2:af:c5:bd:4f:67:6b:63:c5:9f:f3:62:5d:88:2d:
                    9a:6e:06:9a:d1:24:d8:39:ed:7d:ea:de:16:c1:5f:
                    d9:58:ee:ed:c4:6e:aa:d5:29:11:d9:27:c0:78:f6:
                    44:78:74:e9:7f:d3:c3:bc:0b:f3:09:9f:c5:f9:20:
                    63:9b:8f:67:e0:bf:4b:2f:c9:98:93:ab:4f:cc:d7:
                    13:aa:11:49:45:2b:11:76:0d:10:7d:fa:91:da:7d:
                    7a:eb:25:0b:9e:4a:ce:cc:38:02:a8:47:69:d9:0b:
                    08:44:12:10:57:b6:6f:3e:99:26:ec:61:c0:33:e1:
                    ee:54:d6:20:38:58:80:d7:43:71:c1:a6:b7:40:02:
                    dc:a7:c9:de:09:b8:2b:cd:dc:57:b1:8e:60:f3:ef:
                    2e:de:c8:11:11:cb:7f:07:bb:e2:51:8a:08:06:16:
                    f2:84:36:53:80:6a:7f:66:00:60:22:49:d4:f8:5e:
                    0e:2a:d2:c3:72:98:da:aa:96:52:bd:11:71:07:7e:
                    cb:7e:92:45:75:0f:98:4d:ff:4c:60:8a:a6:43:50:
                    bd:ce:2f:2c:b3:e2:1a:d4:ff:85:22:48:72:54:d0:
                    9e:35
                Exponent: 65537 (0x10001)
        X509v3 extensions:
            X509v3 Key Usage: critical
                Certificate Sign, CRL Sign
            X509v3 Basic Constraints: critical
                CA:TRUE
            X509v3 Subject Key Identifier: 
                E1:33:49:E3:B7:38:C8:D4:9C:6B:2C:66:75:00:00:3F:F0:30:18:91
            X509v3 Authority Key Identifier: 
                keyid:E1:33:49:E3:B7:38:C8:D4:9C:6B:2C:66:75:00:00:3F:F0:30:18:91

    Signature Algorithm: sha1WithRSAEncryption
         65:86:6e:f0:b1:98:7f:78:28:2f:0f:5f:c5:8d:57:21:bd:49:
         7c:04:83:f4:e5:a3:54:3c:04:cc:dd:09:21:7e:80:c3:ec:c6:
         ef:74:fc:4e:13:7b:a6:bb:62:d6:4d:61:44:8e:a9:c8:75:8c:
         8c:f4:d8:34:c7:a2:57:63:04:2e:c2:e8:e3:11:34:34:9a:3a:
         c2:f9:2c:f4:0b:0f:54:82:90:fc:15:70:26:be:60:e3:30:9c:
         8b:cb:8f:96:e3:46:07:05:43:9f:47:15:35:a6:0e:4f:89:7e:
         0c:b7:51:ab:c4:57:f6:85:c8:50:56:7b:d4:6f:b4:a4:70:b4:
         60:18:a2:d9:46:d6:4d:37:d2:7c:44:c8:5b:c0:29:36:73:5a:
         0a:5a:00:e6:83:96:00:dd:20:92:02:fa:f2:dc:d6:96:49:b5:
         a7:ec:6c:95:ae:7c:cf:a6:a6:9c:33:4d:28:63:80:74:b8:6e:
         db:a6:40:b9:63:0f:b0:93:ba:07:ee:2b:bd:81:bb:2d:a5:aa:
         92:75:75:88:e1:db:12:fc:41:0e:45:af:17:b5:71:e2:76:39:
         ae:aa:24:80:fa:8f:70:c1:fe:5e:28:1a:42:d0:f3:87:26:50:
         d4:a0:78:d2:15:fa:05:10:28:fd:93:e5:3b:21:0b:95:24:23:
         bf:1e:64:32
-----BEGIN CERTIFICATE-----
MIIDxjCCAq6gAwIBAgIBATANBgkqhkiG9w0BAQUFADB0MRMwEQYKCZImiZPyLGQB
GRYDb3JnMRYwFAYKCZImiZPyLGQBGRYGc2ltcGxlMRMwEQYDVQQKDApTaW1wbGUg
SW5jMRcwFQYDVQQLDA5TaW1wbGUgUm9vdCBDQTEXMBUGA1UEAwwOU2ltcGxlIFJv
b3QgQ0EwHhcNMjEwNTE3MDE1NzUzWhcNMzEwNTE3MDE1NzUzWjB0MRMwEQYKCZIm
iZPyLGQBGRYDb3JnMRYwFAYKCZImiZPyLGQBGRYGc2ltcGxlMRMwEQYDVQQKDApT
aW1wbGUgSW5jMRcwFQYDVQQLDA5TaW1wbGUgUm9vdCBDQTEXMBUGA1UEAwwOU2lt
cGxlIFJvb3QgQ0EwggEiMA0GCSqGSIb3DQEBAQUAA4IBDwAwggEKAoIBAQC05rjs
qFHwaKX+WkHPr2ovOFaap3x2hlRyWOzUeOKvxb1PZ2tjxZ/zYl2ILZpuBprRJNg5
7X3q3hbBX9lY7u3EbqrVKRHZJ8B49kR4dOl/08O8C/MJn8X5IGObj2fgv0svyZiT
q0/M1xOqEUlFKxF2DRB9+pHafXrrJQueSs7MOAKoR2nZCwhEEhBXtm8+mSbsYcAz
4e5U1iA4WIDXQ3HBprdAAtynyd4JuCvN3FexjmDz7y7eyBERy38Hu+JRiggGFvKE
NlOAan9mAGAiSdT4Xg4q0sNymNqqllK9EXEHfst+kkV1D5hN/0xgiqZDUL3OLyyz
4hrU/4UiSHJU0J41AgMBAAGjYzBhMA4GA1UdDwEB/wQEAwIBBjAPBgNVHRMBAf8E
BTADAQH/MB0GA1UdDgQWBBThM0njtzjI1JxrLGZ1AAA/8DAYkTAfBgNVHSMEGDAW
gBThM0njtzjI1JxrLGZ1AAA/8DAYkTANBgkqhkiG9w0BAQUFAAOCAQEAZYZu8LGY
f3goLw9fxY1XIb1JfASD9OWjVDwEzN0JIX6Aw+zG73T8ThN7prti1k1hRI6pyHWM
jPTYNMeiV2MELsLo4xE0NJo6wvks9AsPVIKQ/BVwJr5g4zCci8uPluNGBwVDn0cV
NaYOT4l+DLdRq8RX9oXIUFZ71G+0pHC0YBii2UbWTTfSfETIW8ApNnNaCloA5oOW
AN0gkgL68tzWlkm1p+xsla58z6amnDNNKGOAdLhu26ZAuWMPsJO6B+4rvYG7LaWq
knV1iOHbEvxBDkWvF7Vx4nY5rqokgPqPcMH+XigaQtDzhyZQ1KB40hX6BRAo/ZPl
OyELlSQjvx5kMg==
-----END CERTIFICATE-----
