Certificate:
    Data:
        Version: 3 (0x2)
        Serial Number: 2 (0x2)
        Signature Algorithm: sha1WithRSAEncryption
        Issuer: DC=org, DC=simple, O=Simple Inc, OU=Simple Root CA, CN=Simple Root CA
        Validity
            Not Before: May 17 02:03:21 2021 GMT
            Not After : May 17 02:03:21 2031 GMT
        Subject: DC=org, DC=simple, O=Simple Inc, OU=Simple Signing CA, CN=Simple Signing CA
        Subject Public Key Info:
            Public Key Algorithm: rsaEncryption
                RSA Public-Key: (2048 bit)
                Modulus:
                    00:bd:de:4e:db:78:17:b3:69:26:df:0f:c6:d4:80:
                    bb:5c:c8:53:a6:b4:be:c0:c0:a5:0d:08:01:3c:2d:
                    bd:7b:61:8e:5d:f9:97:d3:f3:0c:9a:74:0e:d4:8e:
                    c3:ed:5f:fd:cb:a6:29:8c:50:6e:4c:66:9e:6d:71:
                    c7:6c:61:2e:33:6e:e1:47:a9:25:db:8c:66:0b:f7:
                    07:aa:27:ff:a3:bf:2b:bc:36:51:5e:88:8e:92:0e:
                    77:26:65:e9:9d:50:52:ad:a7:c2:96:0f:69:f0:d1:
                    92:38:91:7b:95:7b:44:de:f9:6f:46:b5:da:34:8c:
                    b6:f3:79:89:de:1e:52:91:76:97:ce:91:5f:a1:78:
                    83:c2:57:2e:80:80:6e:38:d8:ac:12:eb:b2:d3:dc:
                    2b:5b:5a:09:9a:7d:ab:a7:18:20:d1:d7:45:b4:a3:
                    fd:99:d1:54:85:ae:56:4d:63:74:e5:50:0f:02:d1:
                    09:f6:d3:e3:83:17:4e:dc:de:b8:b6:5d:31:79:76:
                    10:a2:6c:ca:f5:3c:1c:37:ca:7c:60:37:db:dc:23:
                    52:95:52:53:4f:ba:1a:8c:7d:0d:0d:97:20:8e:6f:
                    e8:a9:48:a7:e1:9c:6c:11:ff:2f:52:0f:62:33:d3:
                    c7:ac:f1:48:a8:e2:9d:1a:9b:46:80:69:ab:6f:9f:
                    c5:89
                Exponent: 65537 (0x10001)
        X509v3 extensions:
            X509v3 Key Usage: critical
                Certificate Sign, CRL Sign
            X509v3 Basic Constraints: critical
                CA:TRUE, pathlen:0
            X509v3 Subject Key Identifier: 
                BD:FA:C2:95:9D:79:91:90:A9:FC:1C:ED:92:2A:C9:65:CE:78:7F:A9
            X509v3 Authority Key Identifier: 
                keyid:E1:33:49:E3:B7:38:C8:D4:9C:6B:2C:66:75:00:00:3F:F0:30:18:91

    Signature Algorithm: sha1WithRSAEncryption
         91:3a:b0:4b:c9:f4:d4:70:9e:d6:82:4b:49:22:e4:58:20:be:
         59:47:2f:3c:bd:bf:01:46:34:5a:bd:70:c3:23:6b:30:1b:b4:
         4e:93:bd:8d:02:f5:73:30:db:80:d9:64:3b:f8:7c:18:81:23:
         a5:49:17:f2:5c:36:04:0d:7d:03:55:32:9a:e7:f4:e5:7f:47:
         fe:1f:ff:b6:6b:9f:89:b0:e1:a8:3b:09:ff:74:66:6f:c4:cf:
         d2:56:42:7e:6d:27:54:f6:e9:d0:2f:25:b5:e3:da:57:5e:de:
         04:53:fa:f0:43:03:8f:76:76:81:e0:e6:9a:89:1f:45:0a:ce:
         82:93:90:38:90:13:39:ae:a3:18:32:fc:cb:a3:64:3e:47:6e:
         d3:65:b1:2e:19:e6:7f:ce:c2:09:70:6d:0a:02:64:c6:a1:cc:
         40:c2:0f:51:bc:56:04:03:a5:8b:0f:71:fe:ed:fa:1f:6b:78:
         22:06:a3:fd:5d:14:6e:7e:27:08:cf:e2:43:b4:50:7d:c1:78:
         dc:58:a1:27:6c:26:94:41:7b:1e:20:b4:ee:66:6a:b6:fb:64:
         f2:41:2b:e6:7e:67:10:e8:3f:9e:81:8f:52:72:6c:c4:bf:de:
         46:21:1a:17:d2:80:61:f9:f1:96:ba:8b:e6:b7:bd:c7:3a:aa:
         0c:8c:c0:e6
-----BEGIN CERTIFICATE-----
MIIDzzCCAregAwIBAgIBAjANBgkqhkiG9w0BAQUFADB0MRMwEQYKCZImiZPyLGQB
GRYDb3JnMRYwFAYKCZImiZPyLGQBGRYGc2ltcGxlMRMwEQYDVQQKDApTaW1wbGUg
SW5jMRcwFQYDVQQLDA5TaW1wbGUgUm9vdCBDQTEXMBUGA1UEAwwOU2ltcGxlIFJv
b3QgQ0EwHhcNMjEwNTE3MDIwMzIxWhcNMzEwNTE3MDIwMzIxWjB6MRMwEQYKCZIm
iZPyLGQBGRYDb3JnMRYwFAYKCZImiZPyLGQBGRYGc2ltcGxlMRMwEQYDVQQKDApT
aW1wbGUgSW5jMRowGAYDVQQLDBFTaW1wbGUgU2lnbmluZyBDQTEaMBgGA1UEAwwR
U2ltcGxlIFNpZ25pbmcgQ0EwggEiMA0GCSqGSIb3DQEBAQUAA4IBDwAwggEKAoIB
AQC93k7beBezaSbfD8bUgLtcyFOmtL7AwKUNCAE8Lb17YY5d+ZfT8wyadA7UjsPt
X/3LpimMUG5MZp5tccdsYS4zbuFHqSXbjGYL9weqJ/+jvyu8NlFeiI6SDncmZemd
UFKtp8KWD2nw0ZI4kXuVe0Te+W9Gtdo0jLbzeYneHlKRdpfOkV+heIPCVy6AgG44
2KwS67LT3CtbWgmafaunGCDR10W0o/2Z0VSFrlZNY3TlUA8C0Qn20+ODF07c3ri2
XTF5dhCibMr1PBw3ynxgN9vcI1KVUlNPuhqMfQ0NlyCOb+ipSKfhnGwR/y9SD2Iz
08es8Uio4p0am0aAaatvn8WJAgMBAAGjZjBkMA4GA1UdDwEB/wQEAwIBBjASBgNV
HRMBAf8ECDAGAQH/AgEAMB0GA1UdDgQWBBS9+sKVnXmRkKn8HO2SKsllznh/qTAf
BgNVHSMEGDAWgBThM0njtzjI1JxrLGZ1AAA/8DAYkTANBgkqhkiG9w0BAQUFAAOC
AQEAkTqwS8n01HCe1oJLSSLkWCC+WUcvPL2/AUY0Wr1wwyNrMBu0TpO9jQL1czDb
gNlkO/h8GIEjpUkX8lw2BA19A1Uymuf05X9H/h//tmufibDhqDsJ/3Rmb8TP0lZC
fm0nVPbp0C8ltePaV17eBFP68EMDj3Z2geDmmokfRQrOgpOQOJATOa6jGDL8y6Nk
Pkdu02WxLhnmf87CCXBtCgJkxqHMQMIPUbxWBAOliw9x/u36H2t4Igaj/V0Ubn4n
CM/iQ7RQfcF43FihJ2wmlEF7HiC07mZqtvtk8kEr5n5nEOg/noGPUnJsxL/eRiEa
F9KAYfnxlrqL5re9xzqqDIzA5g==
-----END CERTIFICATE-----
Certificate:
    Data:
        Version: 3 (0x2)
        Serial Number: 1 (0x1)
        Signature Algorithm: sha1WithRSAEncryption
        Issuer: DC=org, DC=simple, O=Simple Inc, OU=Simple Root CA, CN=Simple Root CA
        Validity
            Not Before: May 17 01:57:53 2021 GMT
            Not After : May 17 01:57:53 2031 GMT
        Subject: DC=org, DC=simple, O=Simple Inc, OU=Simple Root CA, CN=Simple Root CA
        Subject Public Key Info:
            Public Key Algorithm: rsaEncryption
                RSA Public-Key: (2048 bit)
                Modulus:
                    00:b4:e6:b8:ec:a8:51:f0:68:a5:fe:5a:41:cf:af:
                    6a:2f:38:56:9a:a7:7c:76:86:54:72:58:ec:d4:78:
                    e2:af:c5:bd:4f:67:6b:63:c5:9f:f3:62:5d:88:2d:
                    9a:6e:06:9a:d1:24:d8:39:ed:7d:ea:de:16:c1:5f:
                    d9:58:ee:ed:c4:6e:aa:d5:29:11:d9:27:c0:78:f6:
                    44:78:74:e9:7f:d3:c3:bc:0b:f3:09:9f:c5:f9:20:
                    63:9b:8f:67:e0:bf:4b:2f:c9:98:93:ab:4f:cc:d7:
                    13:aa:11:49:45:2b:11:76:0d:10:7d:fa:91:da:7d:
                    7a:eb:25:0b:9e:4a:ce:cc:38:02:a8:47:69:d9:0b:
                    08:44:12:10:57:b6:6f:3e:99:26:ec:61:c0:33:e1:
                    ee:54:d6:20:38:58:80:d7:43:71:c1:a6:b7:40:02:
                    dc:a7:c9:de:09:b8:2b:cd:dc:57:b1:8e:60:f3:ef:
                    2e:de:c8:11:11:cb:7f:07:bb:e2:51:8a:08:06:16:
                    f2:84:36:53:80:6a:7f:66:00:60:22:49:d4:f8:5e:
                    0e:2a:d2:c3:72:98:da:aa:96:52:bd:11:71:07:7e:
                    cb:7e:92:45:75:0f:98:4d:ff:4c:60:8a:a6:43:50:
                    bd:ce:2f:2c:b3:e2:1a:d4:ff:85:22:48:72:54:d0:
                    9e:35
                Exponent: 65537 (0x10001)
        X509v3 extensions:
            X509v3 Key Usage: critical
                Certificate Sign, CRL Sign
            X509v3 Basic Constraints: critical
                CA:TRUE
            X509v3 Subject Key Identifier: 
                E1:33:49:E3:B7:38:C8:D4:9C:6B:2C:66:75:00:00:3F:F0:30:18:91
            X509v3 Authority Key Identifier: 
                keyid:E1:33:49:E3:B7:38:C8:D4:9C:6B:2C:66:75:00:00:3F:F0:30:18:91

    Signature Algorithm: sha1WithRSAEncryption
         65:86:6e:f0:b1:98:7f:78:28:2f:0f:5f:c5:8d:57:21:bd:49:
         7c:04:83:f4:e5:a3:54:3c:04:cc:dd:09:21:7e:80:c3:ec:c6:
         ef:74:fc:4e:13:7b:a6:bb:62:d6:4d:61:44:8e:a9:c8:75:8c:
         8c:f4:d8:34:c7:a2:57:63:04:2e:c2:e8:e3:11:34:34:9a:3a:
         c2:f9:2c:f4:0b:0f:54:82:90:fc:15:70:26:be:60:e3:30:9c:
         8b:cb:8f:96:e3:46:07:05:43:9f:47:15:35:a6:0e:4f:89:7e:
         0c:b7:51:ab:c4:57:f6:85:c8:50:56:7b:d4:6f:b4:a4:70:b4:
         60:18:a2:d9:46:d6:4d:37:d2:7c:44:c8:5b:c0:29:36:73:5a:
         0a:5a:00:e6:83:96:00:dd:20:92:02:fa:f2:dc:d6:96:49:b5:
         a7:ec:6c:95:ae:7c:cf:a6:a6:9c:33:4d:28:63:80:74:b8:6e:
         db:a6:40:b9:63:0f:b0:93:ba:07:ee:2b:bd:81:bb:2d:a5:aa:
         92:75:75:88:e1:db:12:fc:41:0e:45:af:17:b5:71:e2:76:39:
         ae:aa:24:80:fa:8f:70:c1:fe:5e:28:1a:42:d0:f3:87:26:50:
         d4:a0:78:d2:15:fa:05:10:28:fd:93:e5:3b:21:0b:95:24:23:
         bf:1e:64:32
-----BEGIN CERTIFICATE-----
MIIDxjCCAq6gAwIBAgIBATANBgkqhkiG9w0BAQUFADB0MRMwEQYKCZImiZPyLGQB
GRYDb3JnMRYwFAYKCZImiZPyLGQBGRYGc2ltcGxlMRMwEQYDVQQKDApTaW1wbGUg
SW5jMRcwFQYDVQQLDA5TaW1wbGUgUm9vdCBDQTEXMBUGA1UEAwwOU2ltcGxlIFJv
b3QgQ0EwHhcNMjEwNTE3MDE1NzUzWhcNMzEwNTE3MDE1NzUzWjB0MRMwEQYKCZIm
iZPyLGQBGRYDb3JnMRYwFAYKCZImiZPyLGQBGRYGc2ltcGxlMRMwEQYDVQQKDApT
aW1wbGUgSW5jMRcwFQYDVQQLDA5TaW1wbGUgUm9vdCBDQTEXMBUGA1UEAwwOU2lt
cGxlIFJvb3QgQ0EwggEiMA0GCSqGSIb3DQEBAQUAA4IBDwAwggEKAoIBAQC05rjs
qFHwaKX+WkHPr2ovOFaap3x2hlRyWOzUeOKvxb1PZ2tjxZ/zYl2ILZpuBprRJNg5
7X3q3hbBX9lY7u3EbqrVKRHZJ8B49kR4dOl/08O8C/MJn8X5IGObj2fgv0svyZiT
q0/M1xOqEUlFKxF2DRB9+pHafXrrJQueSs7MOAKoR2nZCwhEEhBXtm8+mSbsYcAz
4e5U1iA4WIDXQ3HBprdAAtynyd4JuCvN3FexjmDz7y7eyBERy38Hu+JRiggGFvKE
NlOAan9mAGAiSdT4Xg4q0sNymNqqllK9EXEHfst+kkV1D5hN/0xgiqZDUL3OLyyz
4hrU/4UiSHJU0J41AgMBAAGjYzBhMA4GA1UdDwEB/wQEAwIBBjAPBgNVHRMBAf8E
BTADAQH/MB0GA1UdDgQWBBThM0njtzjI1JxrLGZ1AAA/8DAYkTAfBgNVHSMEGDAW
gBThM0njtzjI1JxrLGZ1AAA/8DAYkTANBgkqhkiG9w0BAQUFAAOCAQEAZYZu8LGY
f3goLw9fxY1XIb1JfASD9OWjVDwEzN0JIX6Aw+zG73T8ThN7prti1k1hRI6pyHWM
jPTYNMeiV2MELsLo4xE0NJo6wvks9AsPVIKQ/BVwJr5g4zCci8uPluNGBwVDn0cV
NaYOT4l+DLdRq8RX9oXIUFZ71G+0pHC0YBii2UbWTTfSfETIW8ApNnNaCloA5oOW
AN0gkgL68tzWlkm1p+xsla58z6amnDNNKGOAdLhu26ZAuWMPsJO6B+4rvYG7LaWq
knV1iOHbEvxBDkWvF7Vx4nY5rqokgPqPcMH+XigaQtDzhyZQ1KB40hX6BRAo/ZPl
OyELlSQjvx5kMg==
-----END CERTIFICATE-----
